; Function Attrs: nounwind uwtable
define noalias ptr @evp_md_new() local_unnamed_addr #0 {
  %1 = tail call noalias ptr @CRYPTO_zalloc(i64 noundef 248, ptr noundef nonnull @.str, i32 noundef 942) #8
  %.not = icmp eq ptr %1, null
  br i1 %.not, label %4, label %2

2:                                                ; preds = %0
  %3 = getelementptr inbounds nuw i8, ptr %1, i64 120
  store atomic i32 1, ptr %3 seq_cst, align 4, !tbaa !78
  br label %4

4:                                                ; preds = %0, %2
  ret ptr %1
}